target datalayout = "e-m:e-p270:32:32-p271:32:32-p272:64:64-i64:64-i128:128-f80:128-n8:16:32:64-S128"
target triple = "x86_64-pc-linux-gnu"

%struct.List = type { i32, i32, i32, ptr, [0 x %union.ListCell] }
%union.ListCell = type { ptr }
%struct.Alias = type { i32, ptr, ptr }
%struct.FormData_pg_attribute = type { i32, %struct.nameData, i32, i16, i16, i32, i16, i8, i8, i8, i8, i8, i8, i8, i8, i8, i8, i8, i16, i32 }
%struct.nameData = type { [64 x i8] }
%struct.TupleDescData = type { i32, i32, i32, i32, ptr, [0 x %struct.CompactAttribute] }
%struct.CompactAttribute = type { i32, i16, i8, i8, i8, i8, i8, i8, i8 }

@.str.1 = private unnamed_addr constant [17 x i8] c"parse_relation.c\00", align 1
@.str.15 = private unnamed_addr constant [61 x i8] c"table \22%s\22 has %d columns available but %d columns specified\00", align 1
@.str.43 = private unnamed_addr constant [1 x i8] zeroinitializer, align 1
@__func__.buildRelationAliases = private unnamed_addr constant [21 x i8] c"buildRelationAliases\00", align 1

; Function Attrs: inlinehint nounwind uwtable
define internal ptr @lnext(ptr noundef %0, ptr noundef %1) #6 {
  %3 = alloca ptr, align 8
  %4 = alloca ptr, align 8
  %5 = alloca ptr, align 8
  store ptr %0, ptr %4, align 8
  store ptr %1, ptr %5, align 8
  %6 = load ptr, ptr %5, align 8
  %7 = getelementptr inbounds nuw %union.ListCell, ptr %6, i32 1
  store ptr %7, ptr %5, align 8
  %8 = load ptr, ptr %5, align 8
  %9 = load ptr, ptr %4, align 8
  %10 = getelementptr inbounds nuw %struct.List, ptr %9, i32 0, i32 3
  %11 = load ptr, ptr %10, align 8
  %12 = load ptr, ptr %4, align 8
  %13 = getelementptr inbounds nuw %struct.List, ptr %12, i32 0, i32 1
  %14 = load i32, ptr %13, align 4
  %15 = sext i32 %14 to i64
  %16 = getelementptr inbounds %union.ListCell, ptr %11, i64 %15
  %17 = icmp ult ptr %8, %16
  br i1 %17, label %18, label %20

18:                                               ; preds = %2
  %19 = load ptr, ptr %5, align 8
  store ptr %19, ptr %3, align 8
  br label %21

20:                                               ; preds = %2
  store ptr null, ptr %3, align 8
  br label %21

21:                                               ; preds = %20, %18
  %22 = load ptr, ptr %3, align 8
  ret ptr %22
}

; Function Attrs: inlinehint nounwind uwtable
define internal ptr @TupleDescAttr(ptr noundef %0, i32 noundef %1) #6 {
  %3 = alloca ptr, align 8
  %4 = alloca i32, align 4
  %5 = alloca ptr, align 8
  store ptr %0, ptr %3, align 8
  store i32 %1, ptr %4, align 4
  call void @llvm.lifetime.start.p0(i64 8, ptr %5) #8
  %6 = load ptr, ptr %3, align 8
  %7 = load ptr, ptr %3, align 8
  %8 = getelementptr inbounds nuw %struct.TupleDescData, ptr %7, i32 0, i32 0
  %9 = load i32, ptr %8, align 8
  %10 = sext i32 %9 to i64
  %11 = mul i64 %10, 16
  %12 = add i64 24, %11
  %13 = getelementptr inbounds nuw i8, ptr %6, i64 %12
  store ptr %13, ptr %5, align 8
  %14 = load ptr, ptr %5, align 8
  %15 = load i32, ptr %4, align 4
  %16 = sext i32 %15 to i64
  %17 = getelementptr inbounds %struct.FormData_pg_attribute, ptr %14, i64 %16
  call void @llvm.lifetime.end.p0(i64 8, ptr %5) #8
  ret ptr %17
}

; Function Attrs: inlinehint nounwind uwtable
define internal i32 @list_length(ptr noundef %0) #6 {
  %2 = alloca ptr, align 8
  store ptr %0, ptr %2, align 8
  %3 = load ptr, ptr %2, align 8
  %4 = icmp ne ptr %3, null
  br i1 %4, label %5, label %9

5:                                                ; preds = %1
  %6 = load ptr, ptr %2, align 8
  %7 = getelementptr inbounds nuw %struct.List, ptr %6, i32 0, i32 1
  %8 = load i32, ptr %7, align 4
  br label %10

9:                                                ; preds = %1
  br label %10

10:                                               ; preds = %9, %5
  %11 = phi i32 [ %8, %5 ], [ 0, %9 ]
  ret i32 %11
}

; Function Attrs: inlinehint nounwind uwtable
define internal ptr @list_head(ptr noundef %0) #6 {
  %2 = alloca ptr, align 8
  store ptr %0, ptr %2, align 8
  %3 = load ptr, ptr %2, align 8
  %4 = icmp ne ptr %3, null
  br i1 %4, label %5, label %10

5:                                                ; preds = %1
  %6 = load ptr, ptr %2, align 8
  %7 = getelementptr inbounds nuw %struct.List, ptr %6, i32 0, i32 3
  %8 = load ptr, ptr %7, align 8
  %9 = getelementptr inbounds %union.ListCell, ptr %8, i64 0
  br label %11

10:                                               ; preds = %1
  br label %11

11:                                               ; preds = %10, %5
  %12 = phi ptr [ %9, %5 ], [ null, %10 ]
  ret ptr %12
}

; Function Attrs: nounwind uwtable
define internal void @buildRelationAliases(ptr noundef %0, ptr noundef %1, ptr noundef %2) #0 {
  %4 = alloca ptr, align 8
  %5 = alloca ptr, align 8
  %6 = alloca ptr, align 8
  %7 = alloca i32, align 4
  %8 = alloca ptr, align 8
  %9 = alloca ptr, align 8
  %10 = alloca i32, align 4
  %11 = alloca i32, align 4
  %12 = alloca i32, align 4
  %13 = alloca ptr, align 8
  %14 = alloca ptr, align 8
  store ptr %0, ptr %4, align 8
  store ptr %1, ptr %5, align 8
  store ptr %2, ptr %6, align 8
  call void @llvm.lifetime.start.p0(i64 4, ptr %7) #8
  %15 = load ptr, ptr %4, align 8
  %16 = getelementptr inbounds nuw %struct.TupleDescData, ptr %15, i32 0, i32 0
  %17 = load i32, ptr %16, align 8
  store i32 %17, ptr %7, align 4
  call void @llvm.lifetime.start.p0(i64 8, ptr %8) #8
  call void @llvm.lifetime.start.p0(i64 8, ptr %9) #8
  call void @llvm.lifetime.start.p0(i64 4, ptr %10) #8
  call void @llvm.lifetime.start.p0(i64 4, ptr %11) #8
  call void @llvm.lifetime.start.p0(i64 4, ptr %12) #8
  store i32 0, ptr %12, align 4
  %18 = load ptr, ptr %5, align 8
  %19 = icmp ne ptr %18, null
  br i1 %19, label %20, label %30

20:                                               ; preds = %3
  %21 = load ptr, ptr %5, align 8
  %22 = getelementptr inbounds nuw %struct.Alias, ptr %21, i32 0, i32 2
  %23 = load ptr, ptr %22, align 8
  store ptr %23, ptr %8, align 8
  %24 = load ptr, ptr %8, align 8
  %25 = call ptr @list_head(ptr noundef %24)
  store ptr %25, ptr %9, align 8
  %26 = load ptr, ptr %8, align 8
  %27 = call i32 @list_length(ptr noundef %26)
  store i32 %27, ptr %10, align 4
  %28 = load ptr, ptr %5, align 8
  %29 = getelementptr inbounds nuw %struct.Alias, ptr %28, i32 0, i32 2
  store ptr null, ptr %29, align 8
  br label %31

30:                                               ; preds = %3
  store ptr null, ptr %8, align 8
  store ptr null, ptr %9, align 8
  store i32 0, ptr %10, align 4
  br label %31

31:                                               ; preds = %30, %20
  store i32 0, ptr %11, align 4
  br label %32

32:                                               ; preds = %92, %31
  %33 = load i32, ptr %11, align 4
  %34 = load i32, ptr %7, align 4
  %35 = icmp slt i32 %33, %34
  br i1 %35, label %36, label %95

36:                                               ; preds = %32
  call void @llvm.lifetime.start.p0(i64 8, ptr %13) #8
  %37 = load ptr, ptr %4, align 8
  %38 = load i32, ptr %11, align 4
  %39 = call ptr @TupleDescAttr(ptr noundef %37, i32 noundef %38)
  store ptr %39, ptr %13, align 8
  call void @llvm.lifetime.start.p0(i64 8, ptr %14) #8
  %40 = load ptr, ptr %13, align 8
  %41 = getelementptr inbounds nuw %struct.FormData_pg_attribute, ptr %40, i32 0, i32 16
  %42 = load i8, ptr %41, align 1, !range !6, !noundef !7
  %43 = trunc i8 %42 to i1
  br i1 %43, label %44, label %60

44:                                               ; preds = %36
  %45 = call ptr @pstrdup(ptr noundef @.str.43)
  %46 = call ptr @makeString(ptr noundef %45)
  store ptr %46, ptr %14, align 8
  %47 = load ptr, ptr %9, align 8
  %48 = icmp ne ptr %47, null
  br i1 %48, label %49, label %57

49:                                               ; preds = %44
  %50 = load ptr, ptr %5, align 8
  %51 = getelementptr inbounds nuw %struct.Alias, ptr %50, i32 0, i32 2
  %52 = load ptr, ptr %51, align 8
  %53 = load ptr, ptr %14, align 8
  %54 = call ptr @lappend(ptr noundef %52, ptr noundef %53)
  %55 = load ptr, ptr %5, align 8
  %56 = getelementptr inbounds nuw %struct.Alias, ptr %55, i32 0, i32 2
  store ptr %54, ptr %56, align 8
  br label %57

57:                                               ; preds = %49, %44
  %58 = load i32, ptr %12, align 4
  %59 = add i32 %58, 1
  store i32 %59, ptr %12, align 4
  br label %84

60:                                               ; preds = %36
  %61 = load ptr, ptr %9, align 8
  %62 = icmp ne ptr %61, null
  br i1 %62, label %63, label %76

63:                                               ; preds = %60
  %64 = load ptr, ptr %9, align 8
  %65 = load ptr, ptr %64, align 8
  store ptr %65, ptr %14, align 8
  %66 = load ptr, ptr %8, align 8
  %67 = load ptr, ptr %9, align 8
  %68 = call ptr @lnext(ptr noundef %66, ptr noundef %67)
  store ptr %68, ptr %9, align 8
  %69 = load ptr, ptr %5, align 8
  %70 = getelementptr inbounds nuw %struct.Alias, ptr %69, i32 0, i32 2
  %71 = load ptr, ptr %70, align 8
  %72 = load ptr, ptr %14, align 8
  %73 = call ptr @lappend(ptr noundef %71, ptr noundef %72)
  %74 = load ptr, ptr %5, align 8
  %75 = getelementptr inbounds nuw %struct.Alias, ptr %74, i32 0, i32 2
  store ptr %73, ptr %75, align 8
  br label %83

76:                                               ; preds = %60
  %77 = load ptr, ptr %13, align 8
  %78 = getelementptr inbounds nuw %struct.FormData_pg_attribute, ptr %77, i32 0, i32 1
  %79 = getelementptr inbounds nuw %struct.nameData, ptr %78, i32 0, i32 0
  %80 = getelementptr inbounds [64 x i8], ptr %79, i64 0, i64 0
  %81 = call ptr @pstrdup(ptr noundef %80)
  %82 = call ptr @makeString(ptr noundef %81)
  store ptr %82, ptr %14, align 8
  br label %83

83:                                               ; preds = %76, %63
  br label %84

84:                                               ; preds = %83, %57
  %85 = load ptr, ptr %6, align 8
  %86 = getelementptr inbounds nuw %struct.Alias, ptr %85, i32 0, i32 2
  %87 = load ptr, ptr %86, align 8
  %88 = load ptr, ptr %14, align 8
  %89 = call ptr @lappend(ptr noundef %87, ptr noundef %88)
  %90 = load ptr, ptr %6, align 8
  %91 = getelementptr inbounds nuw %struct.Alias, ptr %90, i32 0, i32 2
  store ptr %89, ptr %91, align 8
  call void @llvm.lifetime.end.p0(i64 8, ptr %14) #8
  call void @llvm.lifetime.end.p0(i64 8, ptr %13) #8
  br label %92

92:                                               ; preds = %84
  %93 = load i32, ptr %11, align 4
  %94 = add i32 %93, 1
  store i32 %94, ptr %11, align 4
  br label %32, !llvm.loop !28

95:                                               ; preds = %32
  %96 = load ptr, ptr %9, align 8
  %97 = icmp ne ptr %96, null
  br i1 %97, label %98, label %117

98:                                               ; preds = %95
  br label %99

99:                                               ; preds = %98
  br i1 true, label %100, label %102

100:                                              ; preds = %99
  %101 = call zeroext i1 @errstart_cold(i32 noundef 21, ptr noundef null) #9
  br i1 %101, label %104, label %114

102:                                              ; preds = %99
  %103 = call zeroext i1 @errstart(i32 noundef 21, ptr noundef null)
  br i1 %103, label %104, label %114

104:                                              ; preds = %102, %100
  %105 = call i32 @errcode(i32 noundef 393348)
  %106 = load ptr, ptr %6, align 8
  %107 = getelementptr inbounds nuw %struct.Alias, ptr %106, i32 0, i32 1
  %108 = load ptr, ptr %107, align 8
  %109 = load i32, ptr %7, align 4
  %110 = load i32, ptr %12, align 4
  %111 = sub i32 %109, %110
  %112 = load i32, ptr %10, align 4
  %113 = call i32 (ptr, ...) @errmsg(ptr noundef @.str.15, ptr noundef %108, i32 noundef %111, i32 noundef %112)
  call void @errfinish(ptr noundef @.str.1, i32 noundef 1252, ptr noundef @__func__.buildRelationAliases)
  br label %114

114:                                              ; preds = %104, %102, %100
  unreachable

115:                                              ; No predecessors!
  br label %116

116:                                              ; preds = %115
  br label %117

117:                                              ; preds = %116, %95
  call void @llvm.lifetime.end.p0(i64 4, ptr %12) #8
  call void @llvm.lifetime.end.p0(i64 4, ptr %11) #8
  call void @llvm.lifetime.end.p0(i64 4, ptr %10) #8
  call void @llvm.lifetime.end.p0(i64 8, ptr %9) #8
  call void @llvm.lifetime.end.p0(i64 8, ptr %8) #8
  call void @llvm.lifetime.end.p0(i64 4, ptr %7) #8
  ret void
}