; Function Attrs: nounwind uwtable
define internal fastcc void @buildRelationAliases(ptr noundef %0, ptr noundef captures(address_is_null) %1, ptr noundef captures(none) %2) unnamed_addr #0 {
  %4 = load i32, ptr %0, align 8
  %.not = icmp eq ptr %1, null
  br i1 %.not, label %15, label %5

5:                                                ; preds = %3
  %6 = getelementptr inbounds nuw i8, ptr %1, i64 16
  %7 = load ptr, ptr %6, align 8
  %.not.i = icmp eq ptr %7, null
  br i1 %.not.i, label %list_length.exit, label %8

8:                                                ; preds = %5
  %9 = getelementptr inbounds nuw i8, ptr %7, i64 16
  %10 = load ptr, ptr %9, align 8
  %11 = getelementptr inbounds nuw i8, ptr %7, i64 4
  %12 = load i32, ptr %11, align 4
  br label %list_length.exit

list_length.exit:                                 ; preds = %5, %8
  %13 = phi ptr [ %10, %8 ], [ null, %5 ]
  %14 = phi i32 [ %12, %8 ], [ 0, %5 ]
  store ptr null, ptr %6, align 8
  br label %15

15:                                               ; preds = %3, %list_length.exit
  %.036 = phi ptr [ %13, %list_length.exit ], [ null, %3 ]
  %.035 = phi i32 [ %14, %list_length.exit ], [ 0, %3 ]
  %.032 = phi ptr [ %7, %list_length.exit ], [ null, %3 ]
  %invariant.gep = getelementptr i8, ptr %0, i64 24
  %16 = icmp sgt i32 %4, 0
  br i1 %16, label %.lr.ph, label %._crit_edge

.lr.ph:                                           ; preds = %15
  %17 = getelementptr i8, ptr %.032, i64 4
  %18 = getelementptr i8, ptr %.032, i64 16
  %19 = getelementptr inbounds nuw i8, ptr %1, i64 16
  %20 = getelementptr inbounds nuw i8, ptr %2, i64 16
  %wide.trip.count = zext nneg i32 %4 to i64
  br label %21

21:                                               ; preds = %.lr.ph, %50
  %indvars.iv = phi i64 [ 0, %.lr.ph ], [ %indvars.iv.next, %50 ]
  %.03347 = phi i32 [ 0, %.lr.ph ], [ %.1, %50 ]
  %.13745 = phi ptr [ %.036, %.lr.ph ], [ %.2, %50 ]
  %22 = load i32, ptr %0, align 8
  %23 = sext i32 %22 to i64
  %24 = shl nsw i64 %23, 4
  %gep = getelementptr i8, ptr %invariant.gep, i64 %24
  %25 = getelementptr inbounds nuw %struct.FormData_pg_attribute, ptr %gep, i64 %indvars.iv
  %26 = getelementptr inbounds nuw i8, ptr %25, i64 91
  %27 = load i8, ptr %26, align 1, !range !4, !noundef !5
  %28 = trunc nuw i8 %27 to i1
  br i1 %28, label %29, label %37

29:                                               ; preds = %21
  %30 = tail call ptr @pstrdup(ptr noundef nonnull @.str.43) #11
  %31 = tail call ptr @makeString(ptr noundef %30) #11
  %.not42 = icmp eq ptr %.13745, null
  br i1 %.not42, label %35, label %32

32:                                               ; preds = %29
  %33 = load ptr, ptr %19, align 8
  %34 = tail call ptr @lappend(ptr noundef %33, ptr noundef %31) #11
  store ptr %34, ptr %19, align 8
  br label %35

35:                                               ; preds = %32, %29
  %36 = add i32 %.03347, 1
  br label %50

37:                                               ; preds = %21
  %.not41 = icmp eq ptr %.13745, null
  br i1 %.not41, label %46, label %38

38:                                               ; preds = %37
  %39 = load ptr, ptr %.13745, align 8
  %.032.val = load i32, ptr %17, align 4
  %.032.val43 = load ptr, ptr %18, align 8
  %40 = getelementptr inbounds nuw i8, ptr %.13745, i64 8
  %41 = sext i32 %.032.val to i64
  %42 = getelementptr inbounds %union.ListCell, ptr %.032.val43, i64 %41
  %43 = icmp ult ptr %40, %42
  %..i = select i1 %43, ptr %40, ptr null
  %44 = load ptr, ptr %19, align 8
  %45 = tail call ptr @lappend(ptr noundef %44, ptr noundef %39) #11
  store ptr %45, ptr %19, align 8
  br label %50

46:                                               ; preds = %37
  %47 = getelementptr inbounds nuw i8, ptr %25, i64 4
  %48 = tail call ptr @pstrdup(ptr noundef nonnull %47) #11
  %49 = tail call ptr @makeString(ptr noundef %48) #11
  br label %50

50:                                               ; preds = %38, %46, %35
  %.2 = phi ptr [ %.13745, %35 ], [ %..i, %38 ], [ null, %46 ]
  %.1 = phi i32 [ %36, %35 ], [ %.03347, %38 ], [ %.03347, %46 ]
  %.0 = phi ptr [ %31, %35 ], [ %39, %38 ], [ %49, %46 ]
  %51 = load ptr, ptr %20, align 8
  %52 = tail call ptr @lappend(ptr noundef %51, ptr noundef %.0) #11
  store ptr %52, ptr %20, align 8
  %indvars.iv.next = add nuw nsw i64 %indvars.iv, 1
  %exitcond.not = icmp eq i64 %indvars.iv.next, %wide.trip.count
  br i1 %exitcond.not, label %._crit_edge, label %21, !llvm.loop !17

._crit_edge:                                      ; preds = %50, %15
  %.137.lcssa = phi ptr [ %.036, %15 ], [ %.2, %50 ]
  %.033.lcssa = phi i32 [ 0, %15 ], [ %.1, %50 ]
  %.not40 = icmp eq ptr %.137.lcssa, null
  br i1 %.not40, label %60, label %53

53:                                               ; preds = %._crit_edge
  %54 = tail call zeroext i1 @errstart_cold(i32 noundef 21, ptr noundef null) #13
  tail call void @llvm.assume(i1 %54)
  %55 = tail call i32 @errcode(i32 noundef 393348) #11
  %56 = getelementptr inbounds nuw i8, ptr %2, i64 8
  %57 = load ptr, ptr %56, align 8
  %58 = sub i32 %4, %.033.lcssa
  %59 = tail call i32 (ptr, ...) @errmsg(ptr noundef nonnull @.str.15, ptr noundef %57, i32 noundef %58, i32 noundef %.035) #11
  tail call void @errfinish(ptr noundef nonnull @.str.1, i32 noundef 1252, ptr noundef nonnull @__func__.buildRelationAliases) #11
  unreachable

60:                                               ; preds = %._crit_edge
  ret void
}